target datalayout = "e-m:e-p270:32:32-p271:32:32-p272:64:64-i64:64-i128:128-f80:128-n8:16:32:64-S128"
target triple = "x86_64-pc-linux-gnu"

%struct.NamedLWLockTrancheRequest = type { [64 x i8], i32 }
%union.LWLockPadded = type { %struct.LWLock, [112 x i8] }
%struct.LWLock = type { i16, %struct.pg_atomic_uint32, %struct.proclist_head }
%struct.pg_atomic_uint32 = type { i32 }
%struct.proclist_head = type { i32, i32 }

@MainLWLockArray = dso_local global ptr null, align 8
@NamedLWLockTrancheRequests = dso_local global i32 0, align 4
@NamedLWLockTrancheRequestArray = internal global ptr null, align 8
@.str = private unnamed_addr constant [36 x i8] c"requested tranche is not registered\00", align 1
@.str.1 = private unnamed_addr constant [9 x i8] c"lwlock.c\00", align 1
@__func__.GetNamedLWLockTranche = private unnamed_addr constant [22 x i8] c"GetNamedLWLockTranche\00", align 1

; Function Attrs: nounwind uwtable
define dso_local ptr @GetNamedLWLockTranche(ptr noundef %0) #0 {
  %2 = alloca ptr, align 8
  %3 = alloca ptr, align 8
  %4 = alloca i32, align 4
  %5 = alloca i32, align 4
  %6 = alloca i32, align 4
  store ptr %0, ptr %3, align 8
  call void @llvm.lifetime.start.p0(i64 4, ptr %4) #9
  call void @llvm.lifetime.start.p0(i64 4, ptr %5) #9
  store i32 213, ptr %4, align 4
  store i32 0, ptr %5, align 4
  br label %7

7:                                                ; preds = %35, %1
  %8 = load i32, ptr %5, align 4
  %9 = load i32, ptr @NamedLWLockTrancheRequests, align 4
  %10 = icmp slt i32 %8, %9
  br i1 %10, label %11, label %38

11:                                               ; preds = %7
  %12 = load ptr, ptr @NamedLWLockTrancheRequestArray, align 8
  %13 = load i32, ptr %5, align 4
  %14 = sext i32 %13 to i64
  %15 = getelementptr inbounds %struct.NamedLWLockTrancheRequest, ptr %12, i64 %14
  %16 = getelementptr inbounds nuw %struct.NamedLWLockTrancheRequest, ptr %15, i32 0, i32 0
  %17 = getelementptr inbounds [64 x i8], ptr %16, i64 0, i64 0
  %18 = load ptr, ptr %3, align 8
  %19 = call i32 @strcmp(ptr noundef %17, ptr noundef %18) #10
  %20 = icmp eq i32 %19, 0
  br i1 %20, label %21, label %26

21:                                               ; preds = %11
  %22 = load ptr, ptr @MainLWLockArray, align 8
  %23 = load i32, ptr %4, align 4
  %24 = sext i32 %23 to i64
  %25 = getelementptr inbounds %union.LWLockPadded, ptr %22, i64 %24
  store ptr %25, ptr %2, align 8
  store i32 1, ptr %6, align 4
  br label %49

26:                                               ; preds = %11
  %27 = load ptr, ptr @NamedLWLockTrancheRequestArray, align 8
  %28 = load i32, ptr %5, align 4
  %29 = sext i32 %28 to i64
  %30 = getelementptr inbounds %struct.NamedLWLockTrancheRequest, ptr %27, i64 %29
  %31 = getelementptr inbounds nuw %struct.NamedLWLockTrancheRequest, ptr %30, i32 0, i32 1
  %32 = load i32, ptr %31, align 4
  %33 = load i32, ptr %4, align 4
  %34 = add i32 %33, %32
  store i32 %34, ptr %4, align 4
  br label %35

35:                                               ; preds = %26
  %36 = load i32, ptr %5, align 4
  %37 = add i32 %36, 1
  store i32 %37, ptr %5, align 4
  br label %7, !llvm.loop !16

38:                                               ; preds = %7
  br label %39

39:                                               ; preds = %38
  br i1 true, label %40, label %42

40:                                               ; preds = %39
  %41 = call zeroext i1 @errstart_cold(i32 noundef 21, ptr noundef null) #11
  br i1 %41, label %44, label %46

42:                                               ; preds = %39
  %43 = call zeroext i1 @errstart(i32 noundef 21, ptr noundef null)
  br i1 %43, label %44, label %46

44:                                               ; preds = %42, %40
  %45 = call i32 (ptr, ...) @errmsg_internal(ptr noundef @.str)
  call void @errfinish(ptr noundef @.str.1, i32 noundef 593, ptr noundef @__func__.GetNamedLWLockTranche)
  br label %46

46:                                               ; preds = %44, %42, %40
  unreachable

47:                                               ; No predecessors!
  br label %48

48:                                               ; preds = %47
  store ptr null, ptr %2, align 8
  store i32 1, ptr %6, align 4
  br label %49

49:                                               ; preds = %48, %21
  call void @llvm.lifetime.end.p0(i64 4, ptr %5) #9
  call void @llvm.lifetime.end.p0(i64 4, ptr %4) #9
  %50 = load ptr, ptr %2, align 8
  ret ptr %50
}