; Function Attrs: nounwind uwtable
define dso_local ptr @GetNamedLWLockTranche(ptr noundef readonly captures(none) %0) local_unnamed_addr #0 {
  %2 = load i32, ptr @NamedLWLockTrancheRequests, align 4
  %3 = icmp sgt i32 %2, 0
  br i1 %3, label %.lr.ph, label %._crit_edge

.lr.ph:                                           ; preds = %1
  %4 = load ptr, ptr @NamedLWLockTrancheRequestArray, align 8
  %wide.trip.count = zext nneg i32 %2 to i64
  br label %5

5:                                                ; preds = %.lr.ph, %13
  %indvars.iv = phi i64 [ 0, %.lr.ph ], [ %indvars.iv.next, %13 ]
  %.010 = phi i32 [ 213, %.lr.ph ], [ %16, %13 ]
  %6 = getelementptr inbounds nuw %struct.NamedLWLockTrancheRequest, ptr %4, i64 %indvars.iv
  %7 = tail call i32 @strcmp(ptr noundef nonnull dereferenceable(1) %6, ptr noundef nonnull dereferenceable(1) %0) #16
  %8 = icmp eq i32 %7, 0
  br i1 %8, label %9, label %13

9:                                                ; preds = %5
  %10 = load ptr, ptr @MainLWLockArray, align 8
  %11 = sext i32 %.010 to i64
  %12 = getelementptr inbounds %union.LWLockPadded, ptr %10, i64 %11
  ret ptr %12

13:                                               ; preds = %5
  %14 = getelementptr inbounds nuw i8, ptr %6, i64 64
  %15 = load i32, ptr %14, align 4
  %16 = add i32 %15, %.010
  %indvars.iv.next = add nuw nsw i64 %indvars.iv, 1
  %exitcond.not = icmp eq i64 %indvars.iv.next, %wide.trip.count
  br i1 %exitcond.not, label %._crit_edge, label %5, !llvm.loop !18

._crit_edge:                                      ; preds = %13, %1
  %17 = tail call zeroext i1 @errstart_cold(i32 noundef 21, ptr noundef null) #17
  tail call void @llvm.assume(i1 %17)
  %18 = tail call i32 (ptr, ...) @errmsg_internal(ptr noundef nonnull @.str) #15
  tail call void @errfinish(ptr noundef nonnull @.str.1, i32 noundef 593, ptr noundef nonnull @__func__.GetNamedLWLockTranche) #15
  unreachable
}